target datalayout = "e-m:e-p270:32:32-p271:32:32-p272:64:64-i64:64-i128:128-f80:128-n8:16:32:64-S128"
target triple = "x86_64-unknown-linux-gnu"

%"class.proxygen::TraceEvent" = type { i8, i32, i32, i32, %"class.std::chrono::time_point", %"class.std::chrono::time_point", %"class.std::map" }
%"class.std::chrono::time_point" = type { %"class.std::chrono::duration" }
%"class.std::chrono::duration" = type { i64 }
%"class.std::map" = type { %"class.std::_Rb_tree" }
%"class.std::_Rb_tree" = type { %"struct.std::_Rb_tree<proxygen::TraceFieldType, std::pair<const proxygen::TraceFieldType, proxygen::TraceEvent::MetaData>, std::_Select1st<std::pair<const proxygen::TraceFieldType, proxygen::TraceEvent::MetaData>>, std::less<proxygen::TraceFieldType>>::_Rb_tree_impl" }
%"struct.std::_Rb_tree<proxygen::TraceFieldType, std::pair<const proxygen::TraceFieldType, proxygen::TraceEvent::MetaData>, std::_Select1st<std::pair<const proxygen::TraceFieldType, proxygen::TraceEvent::MetaData>>, std::less<proxygen::TraceFieldType>>::_Rb_tree_impl" = type { %"struct.std::_Rb_tree_key_compare", %"struct.std::_Rb_tree_header" }
%"struct.std::_Rb_tree_key_compare" = type { %"struct.std::less" }
%"struct.std::less" = type { i8 }
%"struct.std::_Rb_tree_header" = type { %"struct.std::_Rb_tree_node_base", i64 }
%"struct.std::_Rb_tree_node_base" = type { i32, ptr, ptr, ptr }

; Function Attrs: mustprogress nounwind uwtable
define void @_ZN8proxygen10TraceEvent5startENSt6chrono10time_pointINS1_3_V212steady_clockENS1_8durationIlSt5ratioILl1ELl1000000000EEEEEE(ptr noundef nonnull align 8 dereferenceable(80) %this, i64 %startTime.coerce) #2 align 2 {
entry:
  %startTime = alloca %"class.std::chrono::time_point", align 8
  %this.addr = alloca ptr, align 8
  %coerce.dive = getelementptr inbounds %"class.std::chrono::time_point", ptr %startTime, i32 0, i32 0
  %coerce.dive1 = getelementptr inbounds %"class.std::chrono::duration", ptr %coerce.dive, i32 0, i32 0
  store i64 %startTime.coerce, ptr %coerce.dive1, align 8
  store ptr %this, ptr %this.addr, align 8
  %this2 = load ptr, ptr %this.addr, align 8
  %stateFlags_ = getelementptr inbounds %"class.proxygen::TraceEvent", ptr %this2, i32 0, i32 0
  %0 = load i8, ptr %stateFlags_, align 8
  %conv = zext i8 %0 to i32
  %or = or i32 %conv, 1
  %conv3 = trunc i32 %or to i8
  store i8 %conv3, ptr %stateFlags_, align 8
  %start_ = getelementptr inbounds %"class.proxygen::TraceEvent", ptr %this2, i32 0, i32 4
  call void @llvm.memcpy.p0.p0.i64(ptr align 8 %start_, ptr align 8 %startTime, i64 8, i1 false)
  ret void
}