; Function Attrs: mustprogress nofree norecurse nosync nounwind willreturn memory(argmem: readwrite) uwtable
define void @_ZN8proxygen10TraceEvent5startENSt6chrono10time_pointINS1_3_V212steady_clockENS1_8durationIlSt5ratioILl1ELl1000000000EEEEEE(ptr nocapture noundef nonnull align 8 dereferenceable(80) %this, i64 %startTime.coerce) local_unnamed_addr #3 align 2 {
entry:
  %0 = load i8, ptr %this, align 8
  %1 = or i8 %0, 1
  store i8 %1, ptr %this, align 8
  %start_ = getelementptr inbounds i8, ptr %this, i64 16
  store i64 %startTime.coerce, ptr %start_, align 8
  ret void
}